target datalayout = "e-m:e-p270:32:32-p271:32:32-p272:64:64-i64:64-i128:128-f80:128-n8:16:32:64-S128"
target triple = "x86_64-pc-linux-gnu"

%struct.CVodeMemRec = type { ptr, double, ptr, ptr, i32, i32, double, double, ptr, i32, i32, ptr, ptr, i32, i32, ptr, i32, i32, double, double, ptr, i32, i32, i32, i32, ptr, ptr, ptr, i32, i32, ptr, ptr, ptr, i32, double, i32, i32, double, ptr, ptr, ptr, i32, ptr, ptr, i32, i32, i32, double, ptr, ptr, ptr, [13 x ptr], ptr, ptr, ptr, ptr, ptr, ptr, ptr, ptr, ptr, [13 x ptr], ptr, ptr, ptr, ptr, [13 x ptr], ptr, ptr, ptr, ptr, ptr, i32, [13 x ptr], ptr, ptr, ptr, ptr, ptr, i32, i32, double, i32, i32, i32, i32, i32, double, double, double, double, double, double, double, double, [14 x double], [6 x double], [13 x double], double, double, double, double, double, double, double, double, i32, double, double, i32, double, double, ptr, i32, i64, i32, i32, i32, double, double, double, double, double, double, double, double, double, double, double, double, i64, i32, i64, i64, i64, i64, i64, i64, i64, i64, i64, ptr, i64, i64, ptr, i64, i64, ptr, i64, i64, i64, i64, i64, i64, i32, double, double, double, i64, i64, i64, i64, i64, i64, ptr, i32, ptr, i32, ptr, i32, ptr, i32, i32, i64, i32, ptr, i32, ptr, ptr, ptr, ptr, ptr, ptr, i32, i32, ptr, ptr, ptr, ptr, ptr, i64, double, i32, i32, i64, double, double, double, i32, i32, double, i32, i32, i32, i32, i32, i32, i32, i32, i32, i32, i32, i32, i32, i32, i32, i32, ptr, i64, i32, [6 x [4 x double]], i32, i64, ptr, i32, ptr, ptr, double, double, double, ptr, ptr, ptr, double, double, i32, i32, i64, ptr, i32, ptr, i32, i32, [13 x double], ptr, ptr, ptr, i32, ptr, i32 }

; Function Attrs: nounwind uwtable
define internal i32 @cvEwtSetSV(ptr noundef %0, ptr noundef %1, ptr noundef %2) #0 {
  %4 = alloca i32, align 4
  %5 = alloca ptr, align 8
  %6 = alloca ptr, align 8
  %7 = alloca ptr, align 8
  store ptr %0, ptr %5, align 8, !tbaa !10
  store ptr %1, ptr %6, align 8, !tbaa !151
  store ptr %2, ptr %7, align 8, !tbaa !151
  %8 = load ptr, ptr %6, align 8, !tbaa !151
  %9 = load ptr, ptr %5, align 8, !tbaa !10
  %10 = getelementptr inbounds nuw %struct.CVodeMemRec, ptr %9, i32 0, i32 55
  %11 = load ptr, ptr %10, align 8, !tbaa !211
  call void @N_VAbs(ptr noundef %8, ptr noundef %11)
  %12 = load ptr, ptr %5, align 8, !tbaa !10
  %13 = getelementptr inbounds nuw %struct.CVodeMemRec, ptr %12, i32 0, i32 6
  %14 = load double, ptr %13, align 8, !tbaa !154
  %15 = load ptr, ptr %5, align 8, !tbaa !10
  %16 = getelementptr inbounds nuw %struct.CVodeMemRec, ptr %15, i32 0, i32 55
  %17 = load ptr, ptr %16, align 8, !tbaa !211
  %18 = load ptr, ptr %5, align 8, !tbaa !10
  %19 = getelementptr inbounds nuw %struct.CVodeMemRec, ptr %18, i32 0, i32 8
  %20 = load ptr, ptr %19, align 8, !tbaa !216
  %21 = load ptr, ptr %5, align 8, !tbaa !10
  %22 = getelementptr inbounds nuw %struct.CVodeMemRec, ptr %21, i32 0, i32 55
  %23 = load ptr, ptr %22, align 8, !tbaa !211
  call void @N_VLinearSum(double noundef %14, ptr noundef %17, double noundef 1.000000e+00, ptr noundef %20, ptr noundef %23)
  %24 = load ptr, ptr %5, align 8, !tbaa !10
  %25 = getelementptr inbounds nuw %struct.CVodeMemRec, ptr %24, i32 0, i32 9
  %26 = load i32, ptr %25, align 8, !tbaa !29
  %27 = icmp ne i32 %26, 0
  br i1 %27, label %28, label %36

28:                                               ; preds = %3
  %29 = load ptr, ptr %5, align 8, !tbaa !10
  %30 = getelementptr inbounds nuw %struct.CVodeMemRec, ptr %29, i32 0, i32 55
  %31 = load ptr, ptr %30, align 8, !tbaa !211
  %32 = call double @N_VMin(ptr noundef %31)
  %33 = fcmp ole double %32, 0.000000e+00
  br i1 %33, label %34, label %35

34:                                               ; preds = %28
  store i32 -1, ptr %4, align 4
  br label %41

35:                                               ; preds = %28
  br label %36

36:                                               ; preds = %35, %3
  %37 = load ptr, ptr %5, align 8, !tbaa !10
  %38 = getelementptr inbounds nuw %struct.CVodeMemRec, ptr %37, i32 0, i32 55
  %39 = load ptr, ptr %38, align 8, !tbaa !211
  %40 = load ptr, ptr %7, align 8, !tbaa !151
  call void @N_VInv(ptr noundef %39, ptr noundef %40)
  store i32 0, ptr %4, align 4
  br label %41

41:                                               ; preds = %36, %34
  %42 = load i32, ptr %4, align 4
  ret i32 %42
}

; Function Attrs: nounwind uwtable
define internal i32 @cvEwtSetSS(ptr noundef %0, ptr noundef %1, ptr noundef %2) #0 {
  %4 = alloca i32, align 4
  %5 = alloca ptr, align 8
  %6 = alloca ptr, align 8
  %7 = alloca ptr, align 8
  store ptr %0, ptr %5, align 8, !tbaa !10
  store ptr %1, ptr %6, align 8, !tbaa !151
  store ptr %2, ptr %7, align 8, !tbaa !151
  %8 = load ptr, ptr %6, align 8, !tbaa !151
  %9 = load ptr, ptr %5, align 8, !tbaa !10
  %10 = getelementptr inbounds nuw %struct.CVodeMemRec, ptr %9, i32 0, i32 55
  %11 = load ptr, ptr %10, align 8, !tbaa !211
  call void @N_VAbs(ptr noundef %8, ptr noundef %11)
  %12 = load ptr, ptr %5, align 8, !tbaa !10
  %13 = getelementptr inbounds nuw %struct.CVodeMemRec, ptr %12, i32 0, i32 6
  %14 = load double, ptr %13, align 8, !tbaa !154
  %15 = load ptr, ptr %5, align 8, !tbaa !10
  %16 = getelementptr inbounds nuw %struct.CVodeMemRec, ptr %15, i32 0, i32 55
  %17 = load ptr, ptr %16, align 8, !tbaa !211
  %18 = load ptr, ptr %5, align 8, !tbaa !10
  %19 = getelementptr inbounds nuw %struct.CVodeMemRec, ptr %18, i32 0, i32 55
  %20 = load ptr, ptr %19, align 8, !tbaa !211
  call void @N_VScale(double noundef %14, ptr noundef %17, ptr noundef %20)
  %21 = load ptr, ptr %5, align 8, !tbaa !10
  %22 = getelementptr inbounds nuw %struct.CVodeMemRec, ptr %21, i32 0, i32 55
  %23 = load ptr, ptr %22, align 8, !tbaa !211
  %24 = load ptr, ptr %5, align 8, !tbaa !10
  %25 = getelementptr inbounds nuw %struct.CVodeMemRec, ptr %24, i32 0, i32 7
  %26 = load double, ptr %25, align 8, !tbaa !217
  %27 = load ptr, ptr %5, align 8, !tbaa !10
  %28 = getelementptr inbounds nuw %struct.CVodeMemRec, ptr %27, i32 0, i32 55
  %29 = load ptr, ptr %28, align 8, !tbaa !211
  call void @N_VAddConst(ptr noundef %23, double noundef %26, ptr noundef %29)
  %30 = load ptr, ptr %5, align 8, !tbaa !10
  %31 = getelementptr inbounds nuw %struct.CVodeMemRec, ptr %30, i32 0, i32 9
  %32 = load i32, ptr %31, align 8, !tbaa !29
  %33 = icmp ne i32 %32, 0
  br i1 %33, label %34, label %42

34:                                               ; preds = %3
  %35 = load ptr, ptr %5, align 8, !tbaa !10
  %36 = getelementptr inbounds nuw %struct.CVodeMemRec, ptr %35, i32 0, i32 55
  %37 = load ptr, ptr %36, align 8, !tbaa !211
  %38 = call double @N_VMin(ptr noundef %37)
  %39 = fcmp ole double %38, 0.000000e+00
  br i1 %39, label %40, label %41

40:                                               ; preds = %34
  store i32 -1, ptr %4, align 4
  br label %47

41:                                               ; preds = %34
  br label %42

42:                                               ; preds = %41, %3
  %43 = load ptr, ptr %5, align 8, !tbaa !10
  %44 = getelementptr inbounds nuw %struct.CVodeMemRec, ptr %43, i32 0, i32 55
  %45 = load ptr, ptr %44, align 8, !tbaa !211
  %46 = load ptr, ptr %7, align 8, !tbaa !151
  call void @N_VInv(ptr noundef %45, ptr noundef %46)
  store i32 0, ptr %4, align 4
  br label %47

47:                                               ; preds = %42, %40
  %48 = load i32, ptr %4, align 4
  ret i32 %48
}

; Function Attrs: nounwind uwtable
define i32 @cvEwtSet(ptr noundef %0, ptr noundef %1, ptr noundef %2) #0 {
  %4 = alloca ptr, align 8
  %5 = alloca ptr, align 8
  %6 = alloca ptr, align 8
  %7 = alloca ptr, align 8
  %8 = alloca i32, align 4
  store ptr %0, ptr %4, align 8, !tbaa !151
  store ptr %1, ptr %5, align 8, !tbaa !151
  store ptr %2, ptr %6, align 8, !tbaa !153
  call void @llvm.lifetime.start.p0(i64 8, ptr %7) #10
  call void @llvm.lifetime.start.p0(i64 4, ptr %8) #10
  store i32 0, ptr %8, align 4, !tbaa !3
  %9 = load ptr, ptr %6, align 8, !tbaa !153
  store ptr %9, ptr %7, align 8, !tbaa !10
  %10 = load ptr, ptr %7, align 8, !tbaa !10
  %11 = getelementptr inbounds nuw %struct.CVodeMemRec, ptr %10, i32 0, i32 5
  %12 = load i32, ptr %11, align 4, !tbaa !28
  switch i32 %12, label %23 [
    i32 1, label %13
    i32 2, label %18
  ]

13:                                               ; preds = %3
  %14 = load ptr, ptr %7, align 8, !tbaa !10
  %15 = load ptr, ptr %4, align 8, !tbaa !151
  %16 = load ptr, ptr %5, align 8, !tbaa !151
  %17 = call i32 @cvEwtSetSS(ptr noundef %14, ptr noundef %15, ptr noundef %16)
  store i32 %17, ptr %8, align 4, !tbaa !3
  br label %23

18:                                               ; preds = %3
  %19 = load ptr, ptr %7, align 8, !tbaa !10
  %20 = load ptr, ptr %4, align 8, !tbaa !151
  %21 = load ptr, ptr %5, align 8, !tbaa !151
  %22 = call i32 @cvEwtSetSV(ptr noundef %19, ptr noundef %20, ptr noundef %21)
  store i32 %22, ptr %8, align 4, !tbaa !3
  br label %23

23:                                               ; preds = %3, %18, %13
  %24 = load i32, ptr %8, align 4, !tbaa !3
  call void @llvm.lifetime.end.p0(i64 4, ptr %8) #10
  call void @llvm.lifetime.end.p0(i64 8, ptr %7) #10
  ret i32 %24
}