; Function Attrs: nounwind uwtable
define range(i32 -1, 1) i32 @cvEwtSet(ptr noundef %0, ptr noundef %1, ptr noundef readonly captures(none) %2) #0 {
  %4 = getelementptr inbounds nuw i8, ptr %2, i64 36
  %5 = load i32, ptr %4, align 4, !tbaa !134
  switch i32 %5, label %cvEwtSetSS.exit [
    i32 1, label %6
    i32 2, label %21
  ]

6:                                                ; preds = %3
  %7 = getelementptr inbounds nuw i8, ptr %2, i64 464
  %8 = load ptr, ptr %7, align 8, !tbaa !98
  tail call void @N_VAbs(ptr noundef %0, ptr noundef %8) #13
  %9 = getelementptr inbounds nuw i8, ptr %2, i64 40
  %10 = load double, ptr %9, align 8, !tbaa !66
  %11 = load ptr, ptr %7, align 8, !tbaa !98
  tail call void @N_VScale(double noundef %10, ptr noundef %11, ptr noundef %11) #13
  %12 = load ptr, ptr %7, align 8, !tbaa !98
  %13 = getelementptr inbounds nuw i8, ptr %2, i64 48
  %14 = load double, ptr %13, align 8, !tbaa !133
  tail call void @N_VAddConst(ptr noundef %12, double noundef %14, ptr noundef %12) #13
  %15 = getelementptr inbounds nuw i8, ptr %2, i64 64
  %16 = load i32, ptr %15, align 8, !tbaa !22
  %.not.i = icmp eq i32 %16, 0
  br i1 %.not.i, label %cvEwtSetSS.exit.sink.split, label %17

17:                                               ; preds = %6
  %18 = load ptr, ptr %7, align 8, !tbaa !98
  %19 = tail call double @N_VMin(ptr noundef %18) #13
  %20 = fcmp ugt double %19, 0.000000e+00
  br i1 %20, label %cvEwtSetSS.exit.sink.split, label %cvEwtSetSS.exit

21:                                               ; preds = %3
  %22 = getelementptr inbounds nuw i8, ptr %2, i64 464
  %23 = load ptr, ptr %22, align 8, !tbaa !98
  tail call void @N_VAbs(ptr noundef %0, ptr noundef %23) #13
  %24 = getelementptr inbounds nuw i8, ptr %2, i64 40
  %25 = load double, ptr %24, align 8, !tbaa !66
  %26 = load ptr, ptr %22, align 8, !tbaa !98
  %27 = getelementptr inbounds nuw i8, ptr %2, i64 56
  %28 = load ptr, ptr %27, align 8, !tbaa !130
  tail call void @N_VLinearSum(double noundef %25, ptr noundef %26, double noundef 1.000000e+00, ptr noundef %28, ptr noundef %26) #13
  %29 = getelementptr inbounds nuw i8, ptr %2, i64 64
  %30 = load i32, ptr %29, align 8, !tbaa !22
  %.not.i8 = icmp eq i32 %30, 0
  br i1 %.not.i8, label %cvEwtSetSS.exit.sink.split, label %31

31:                                               ; preds = %21
  %32 = load ptr, ptr %22, align 8, !tbaa !98
  %33 = tail call double @N_VMin(ptr noundef %32) #13
  %34 = fcmp ugt double %33, 0.000000e+00
  br i1 %34, label %cvEwtSetSS.exit.sink.split, label %cvEwtSetSS.exit

cvEwtSetSS.exit.sink.split:                       ; preds = %21, %31, %6, %17
  %.sink.in = phi ptr [ %7, %17 ], [ %7, %6 ], [ %22, %31 ], [ %22, %21 ]
  %.sink = load ptr, ptr %.sink.in, align 8, !tbaa !98
  tail call void @N_VInv(ptr noundef %.sink, ptr noundef %1) #13
  br label %cvEwtSetSS.exit

cvEwtSetSS.exit:                                  ; preds = %cvEwtSetSS.exit.sink.split, %31, %17, %3
  %.0 = phi i32 [ 0, %3 ], [ -1, %17 ], [ -1, %31 ], [ 0, %cvEwtSetSS.exit.sink.split ]
  ret i32 %.0
}